; Function Attrs: mustprogress nounwind uwtable
define hidden noundef zeroext i1 @_ZN14LibraryCallKit14inline_min_maxE13vmIntrinsicID(ptr nocapture noundef nonnull align 8 dereferenceable(108) %0, i32 noundef %1) local_unnamed_addr #0 align 2 {
  %3 = getelementptr inbounds i8, ptr %0, i64 40
  %4 = load ptr, ptr %3, align 8
  %5 = getelementptr inbounds i8, ptr %4, i64 56
  %6 = load ptr, ptr %5, align 8
  %7 = getelementptr inbounds i8, ptr %6, i64 16
  %8 = load i32, ptr %7, align 8
  %9 = getelementptr inbounds i8, ptr %6, i64 32
  %10 = load i32, ptr %9, align 8
  %11 = add i32 %10, %8
  %12 = getelementptr inbounds i8, ptr %4, i64 8
  %13 = load ptr, ptr %12, align 8
  %14 = zext i32 %11 to i64
  %15 = getelementptr inbounds ptr, ptr %13, i64 %14
  %16 = load ptr, ptr %15, align 8
  %17 = add i32 %11, 1
  %18 = zext i32 %17 to i64
  %19 = getelementptr inbounds ptr, ptr %13, i64 %18
  %20 = load ptr, ptr %19, align 8
  %21 = tail call noundef ptr @_ZN14LibraryCallKit16generate_min_maxE13vmIntrinsicIDP4NodeS2_(ptr noundef nonnull align 8 dereferenceable(108) %0, i32 noundef %1, ptr noundef %16, ptr noundef %20)
  %22 = getelementptr inbounds i8, ptr %0, i64 96
  store ptr %21, ptr %22, align 8
  ret i1 true
}